Certificate:
    Data:
        Version: 3 (0x2)
        Serial Number: 1 (0x1)
    Signature Algorithm: sha256WithRSAEncryption
        Issuer: C=ES, ST=Murcia, O=UMU, OU=SSTT, CN=ca.sstt.org/emailAddress=edu@sstt.org
        Validity
            Not Before: Apr 15 16:24:24 2024 GMT
            Not After : May 20 16:24:24 2025 GMT
        Subject: C=ES, ST=Murcia, O=UMU, OU=SSTT, CN=www.sstt.org
        Subject Public Key Info:
            Public Key Algorithm: rsaEncryption
                Public-Key: (2048 bit)
                Modulus:
                    00:c6:01:0f:14:01:d9:78:cb:9e:d8:8e:8d:9d:2b:
                    99:44:17:10:25:34:8e:39:5c:c5:13:98:92:c9:ff:
                    7d:39:1a:ae:70:00:ca:b8:8e:bd:2d:72:44:66:6a:
                    ab:89:3d:37:66:5f:8a:15:1a:57:a6:17:e9:35:13:
                    3c:5b:89:96:0e:41:e5:0b:ed:73:e7:f1:92:9b:4e:
                    cd:4d:be:f6:5b:7f:34:b7:dd:fa:8f:20:dc:5b:e3:
                    f2:b9:2d:dc:10:53:67:fb:bb:92:a0:77:59:28:09:
                    e1:f8:41:b6:6b:06:c2:b1:72:d4:3e:7d:68:9f:7c:
                    dc:98:59:27:ac:97:64:ef:34:f0:bc:25:53:2c:cb:
                    e1:bd:fc:95:14:b7:e3:bb:61:cd:2b:b6:3a:ed:eb:
                    8f:80:06:b2:bf:db:44:7c:e3:ec:95:09:ce:4a:02:
                    a5:0b:2c:13:3f:ff:68:de:46:53:9c:67:74:5f:77:
                    83:7c:6d:02:fe:c2:21:39:05:a9:c6:f0:cf:b3:c2:
                    14:a0:39:63:e1:d7:5a:8b:74:dd:ed:f0:c7:58:7c:
                    2c:47:05:56:c3:0e:11:21:2d:a0:44:de:bf:bd:64:
                    30:dd:c7:6a:fa:71:43:e7:29:eb:99:c8:20:39:de:
                    bf:df:75:64:01:da:37:cb:b6:32:a0:ca:46:64:72:
                    1d:19
                Exponent: 65537 (0x10001)
        X509v3 extensions:
            X509v3 Basic Constraints: 
                CA:FALSE
            Netscape Comment: 
                OpenSSL Generated Certificate
            X509v3 Subject Key Identifier: 
                50:CD:D1:62:E4:E0:10:FB:4F:E8:1E:37:2A:C5:25:0A:CC:76:52:3F
            X509v3 Authority Key Identifier: 
                keyid:47:81:65:41:EA:61:1D:96:55:7C:90:FE:51:7D:61:53:A5:22:F5:51

    Signature Algorithm: sha256WithRSAEncryption
         30:c7:8a:ce:9e:b0:0f:8c:7d:a3:30:ee:27:1b:77:53:46:2c:
         54:6f:3c:5d:97:a4:32:5e:9b:25:ee:d0:12:92:c0:9d:40:bf:
         98:01:94:e3:dd:d5:f4:f9:be:87:3b:7a:14:aa:77:0b:97:dd:
         18:8b:46:d9:49:ae:6c:0b:10:4a:b2:0c:64:16:e9:cd:46:d6:
         9c:10:49:90:e4:ee:c7:76:45:dc:34:80:c0:1c:c2:2a:1b:39:
         b8:f9:02:45:33:ca:c3:86:43:65:8e:98:f2:64:9e:37:76:32:
         6c:80:49:0a:06:63:23:9b:08:a8:05:11:ab:9b:2b:be:b9:db:
         15:41:b9:ef:66:61:5e:13:61:70:b6:2a:52:88:84:8a:35:71:
         d3:59:5d:06:77:41:a8:27:26:57:6f:7b:a1:25:95:c7:19:c3:
         4d:f3:63:0c:c7:81:3c:0d:05:56:9b:16:67:51:dc:fb:01:ae:
         a4:a1:f3:f0:d1:64:d7:f6:63:de:d2:d8:7c:2d:9c:6f:a5:f4:
         24:e2:2d:b1:83:0c:7d:ea:e8:e2:d6:fd:fe:24:70:27:eb:c5:
         77:71:e1:e7:c3:0f:b2:41:66:2f:46:8f:82:c1:fd:58:4c:c4:
         2f:03:4d:fd:af:45:ec:c4:c9:3b:b2:f8:02:c6:48:8e:40:a3:
         ea:2b:0b:c0
-----BEGIN CERTIFICATE-----
MIIDtjCCAp6gAwIBAgIBATANBgkqhkiG9w0BAQsFADBuMQswCQYDVQQGEwJFUzEP
MA0GA1UECAwGTXVyY2lhMQwwCgYDVQQKDANVTVUxDTALBgNVBAsMBFNTVFQxFDAS
BgNVBAMMC2NhLnNzdHQub3JnMRswGQYJKoZIhvcNAQkBFgxlZHVAc3N0dC5vcmcw
HhcNMjQwNDE1MTYyNDI0WhcNMjUwNTIwMTYyNDI0WjBSMQswCQYDVQQGEwJFUzEP
MA0GA1UECAwGTXVyY2lhMQwwCgYDVQQKDANVTVUxDTALBgNVBAsMBFNTVFQxFTAT
BgNVBAMMDHd3dy5zc3R0Lm9yZzCCASIwDQYJKoZIhvcNAQEBBQADggEPADCCAQoC
ggEBAMYBDxQB2XjLntiOjZ0rmUQXECU0jjlcxROYksn/fTkarnAAyriOvS1yRGZq
q4k9N2ZfihUaV6YX6TUTPFuJlg5B5Qvtc+fxkptOzU2+9lt/NLfd+o8g3Fvj8rkt
3BBTZ/u7kqB3WSgJ4fhBtmsGwrFy1D59aJ983JhZJ6yXZO808LwlUyzL4b38lRS3
47thzSu2Ou3rj4AGsr/bRHzj7JUJzkoCpQssEz//aN5GU5xndF93g3xtAv7CITkF
qcbwz7PCFKA5Y+HXWot03e3wx1h8LEcFVsMOESEtoETev71kMN3HavpxQ+cp65nI
IDnev991ZAHaN8u2MqDKRmRyHRkCAwEAAaN7MHkwCQYDVR0TBAIwADAsBglghkgB
hvhCAQ0EHxYdT3BlblNTTCBHZW5lcmF0ZWQgQ2VydGlmaWNhdGUwHQYDVR0OBBYE
FFDN0WLk4BD7T+geNyrFJQrMdlI/MB8GA1UdIwQYMBaAFEeBZUHqYR2WVXyQ/lF9
YVOlIvVRMA0GCSqGSIb3DQEBCwUAA4IBAQAwx4rOnrAPjH2jMO4nG3dTRixUbzxd
l6QyXpsl7tASksCdQL+YAZTj3dX0+b6HO3oUqncLl90Yi0bZSa5sCxBKsgxkFunN
RtacEEmQ5O7HdkXcNIDAHMIqGzm4+QJFM8rDhkNljpjyZJ43djJsgEkKBmMjmwio
BRGrmyu+udsVQbnvZmFeE2FwtipSiISKNXHTWV0Gd0GoJyZXb3uhJZXHGcNN82MM
x4E8DQVWmxZnUdz7Aa6kofPw0WTX9mPe0th8LZxvpfQk4i2xgwx96uji1v3+JHAn
68V3ceHnww+yQWYvRo+Cwf1YTMQvA039r0XsxMk7svgCxkiOQKPqKwvA
-----END CERTIFICATE-----
