Certificate:
    Data:
        Version: 3 (0x2)
        Serial Number: 2 (0x2)
    Signature Algorithm: sha256WithRSAEncryption
        Issuer: C=ES, ST=Murcia, O=UMU, OU=SSTT, CN=ca.sstt.org/emailAddress=edu@sstt.org
        Validity
            Not Before: Apr 22 16:18:47 2024 GMT
            Not After : May 27 16:18:47 2025 GMT
        Subject: C=ES, ST=Murcia, O=UMU, OU=SSTT, CN=client.sstt.org
        Subject Public Key Info:
            Public Key Algorithm: rsaEncryption
                Public-Key: (2048 bit)
                Modulus:
                    00:d4:de:f1:12:68:bb:ef:06:7e:a1:21:f9:2e:6f:
                    86:aa:b5:e9:d2:ed:57:ca:ac:6d:37:31:68:e4:6d:
                    72:ec:c8:68:8e:f4:ad:22:d6:c5:4b:41:6f:b6:24:
                    a0:f8:65:0d:1b:85:79:91:7e:67:17:84:2d:7e:c1:
                    6a:d3:6f:89:3c:4d:02:33:4a:42:c6:e4:33:48:7e:
                    14:4b:fb:c6:e7:5d:88:f2:90:d0:54:24:1b:ad:6d:
                    94:db:66:61:6e:00:b3:06:3b:5e:a3:23:c6:fb:23:
                    61:97:39:5a:d8:83:7c:c4:0b:90:a8:60:09:c5:d1:
                    2e:d1:00:af:98:99:7b:d9:c7:08:1d:02:bb:ef:a7:
                    20:be:f5:85:1c:d2:ae:8e:b8:63:2a:14:ff:7b:13:
                    f6:aa:a6:c9:0f:e7:05:5f:b2:09:2d:1b:f6:cd:a1:
                    17:27:5f:bc:62:71:ad:95:33:c0:47:38:6b:69:33:
                    e0:a7:6c:49:3f:b5:f1:e8:2e:d7:0b:f1:03:cf:dc:
                    37:7a:7a:97:4a:04:01:dc:22:bc:c3:32:c4:7e:57:
                    40:90:70:8f:82:65:3f:96:32:5e:e2:6d:cf:04:7c:
                    a6:ef:4a:25:c8:81:fb:14:ef:dc:eb:66:e7:94:32:
                    df:82:14:e4:03:68:2d:9e:2c:f1:7c:90:26:71:0e:
                    d1:45
                Exponent: 65537 (0x10001)
        X509v3 extensions:
            X509v3 Basic Constraints: 
                CA:FALSE
            Netscape Comment: 
                OpenSSL Generated Certificate
            X509v3 Subject Key Identifier: 
                99:51:FB:8A:E1:2D:F9:BD:DC:D0:CE:81:BA:99:6B:CC:E0:74:1E:EA
            X509v3 Authority Key Identifier: 
                keyid:47:81:65:41:EA:61:1D:96:55:7C:90:FE:51:7D:61:53:A5:22:F5:51

    Signature Algorithm: sha256WithRSAEncryption
         88:24:75:20:10:b4:6f:3b:12:5e:dd:75:7e:ec:b6:bf:e7:9a:
         e1:60:32:3e:4b:e7:90:55:eb:7a:7a:21:e4:92:06:4e:b0:47:
         2e:e1:85:a5:17:9f:f5:2c:23:ad:06:54:e3:e0:9b:4a:93:3a:
         75:ec:41:ae:37:ed:93:54:08:10:43:d3:16:d7:b3:a1:95:26:
         3d:8e:a7:27:de:2d:a5:be:e4:a4:f9:10:a9:34:83:39:a4:c9:
         a3:c3:71:52:e3:7b:1b:be:3e:6c:52:ee:76:ba:a2:12:47:7d:
         8b:cd:fe:d1:79:89:ee:93:02:be:f2:8f:e2:01:d7:aa:ff:96:
         0f:0e:a9:b6:8d:29:f5:47:bd:07:da:2d:0f:75:bf:6e:ed:8d:
         29:e3:08:c6:1b:72:dd:68:bd:49:37:9d:f1:dd:f1:e5:2e:e9:
         f9:26:8d:fd:50:0d:34:52:19:08:f1:81:f9:f0:9b:ea:1f:3a:
         33:22:67:03:b0:48:96:f0:8d:1a:9c:97:a8:08:82:7c:9b:e9:
         db:d6:f7:1c:d5:40:43:a0:e7:b2:57:29:17:a3:cf:27:6d:3f:
         53:4f:87:a6:b5:d2:ef:83:0c:e0:00:0c:df:41:62:a0:47:23:
         6a:0a:f0:22:a4:cc:ee:e9:7f:24:be:1e:5b:ba:19:a1:09:b5:
         90:36:e8:d1
-----BEGIN CERTIFICATE-----
MIIDuTCCAqGgAwIBAgIBAjANBgkqhkiG9w0BAQsFADBuMQswCQYDVQQGEwJFUzEP
MA0GA1UECAwGTXVyY2lhMQwwCgYDVQQKDANVTVUxDTALBgNVBAsMBFNTVFQxFDAS
BgNVBAMMC2NhLnNzdHQub3JnMRswGQYJKoZIhvcNAQkBFgxlZHVAc3N0dC5vcmcw
HhcNMjQwNDIyMTYxODQ3WhcNMjUwNTI3MTYxODQ3WjBVMQswCQYDVQQGEwJFUzEP
MA0GA1UECAwGTXVyY2lhMQwwCgYDVQQKDANVTVUxDTALBgNVBAsMBFNTVFQxGDAW
BgNVBAMMD2NsaWVudC5zc3R0Lm9yZzCCASIwDQYJKoZIhvcNAQEBBQADggEPADCC
AQoCggEBANTe8RJou+8GfqEh+S5vhqq16dLtV8qsbTcxaORtcuzIaI70rSLWxUtB
b7YkoPhlDRuFeZF+ZxeELX7BatNviTxNAjNKQsbkM0h+FEv7xuddiPKQ0FQkG61t
lNtmYW4AswY7XqMjxvsjYZc5WtiDfMQLkKhgCcXRLtEAr5iZe9nHCB0Cu++nIL71
hRzSro64YyoU/3sT9qqmyQ/nBV+yCS0b9s2hFydfvGJxrZUzwEc4a2kz4KdsST+1
8egu1wvxA8/cN3p6l0oEAdwivMMyxH5XQJBwj4JlP5YyXuJtzwR8pu9KJciB+xTv
3Otm55Qy34IU5ANoLZ4s8XyQJnEO0UUCAwEAAaN7MHkwCQYDVR0TBAIwADAsBglg
hkgBhvhCAQ0EHxYdT3BlblNTTCBHZW5lcmF0ZWQgQ2VydGlmaWNhdGUwHQYDVR0O
BBYEFJlR+4rhLfm93NDOgbqZa8zgdB7qMB8GA1UdIwQYMBaAFEeBZUHqYR2WVXyQ
/lF9YVOlIvVRMA0GCSqGSIb3DQEBCwUAA4IBAQCIJHUgELRvOxJe3XV+7La/55rh
YDI+S+eQVet6eiHkkgZOsEcu4YWlF5/1LCOtBlTj4JtKkzp17EGuN+2TVAgQQ9MW
17OhlSY9jqcn3i2lvuSk+RCpNIM5pMmjw3FS43sbvj5sUu52uqISR32Lzf7ReYnu
kwK+8o/iAdeq/5YPDqm2jSn1R70H2i0Pdb9u7Y0p4wjGG3LdaL1JN53x3fHlLun5
Jo39UA00UhkI8YH58JvqHzozImcDsEiW8I0anJeoCIJ8m+nb1vcc1UBDoOeyVykX
o88nbT9TT4emtdLvgwzgAAzfQWKgRyNqCvAipMzu6X8kvh5buhmhCbWQNujR
-----END CERTIFICATE-----
