Certificate:
    Data:
        Version: 3 (0x2)
        Serial Number: 3 (0x3)
    Signature Algorithm: sha256WithRSAEncryption
        Issuer: C=ES, ST=Murcia, O=UMU, OU=NN, CN=ca.nebulanexus1345.com/emailAddress=edu@nebulanexus1345.com
        Validity
            Not Before: Apr 29 15:58:49 2024 GMT
            Not After : Jun  3 15:58:49 2025 GMT
        Subject: C=ES, ST=Murcia, O=UMU, OU=NN, CN=www.nebulanexus1345.com
        Subject Public Key Info:
            Public Key Algorithm: rsaEncryption
                Public-Key: (2048 bit)
                Modulus:
                    00:ec:01:1c:76:4c:94:4d:4e:7d:a8:48:84:b4:26:
                    6f:2d:d3:87:2a:12:a0:f6:24:f8:89:61:19:d7:9f:
                    ea:23:08:9f:ca:5b:d9:ad:76:02:94:86:3c:ef:dd:
                    5d:41:a5:ef:3c:8c:b0:89:6e:04:e5:18:fa:56:6c:
                    a5:d8:78:60:95:1b:32:76:19:aa:86:67:35:1f:91:
                    8f:3c:89:6f:ca:e8:59:d3:bb:9c:39:ff:08:f3:ad:
                    ac:59:57:97:f0:d5:64:ad:8d:d6:2d:bf:54:ff:60:
                    b6:20:8d:a1:00:23:34:c0:f6:62:5a:d2:b4:39:8d:
                    15:1f:1b:7e:e4:8e:55:28:cc:8b:ac:26:79:11:f3:
                    da:44:33:43:31:ac:46:9d:87:ef:b6:26:99:82:6d:
                    63:15:17:21:9f:39:6f:31:a6:ec:ee:18:b0:9b:a6:
                    b0:ee:0d:0e:ad:f3:5c:44:c2:78:32:7a:e3:71:00:
                    a2:fa:fe:39:7b:a7:5b:fe:b5:ee:f2:ab:20:07:ae:
                    8c:c0:33:02:cd:cf:97:8e:ff:41:4f:51:35:1b:76:
                    fd:98:a7:d6:96:5f:11:01:b0:55:35:b8:4b:e7:46:
                    ed:49:53:17:0c:32:7b:f4:35:59:ce:fd:c3:80:80:
                    81:d4:2f:a9:97:5b:78:11:1f:4f:5d:78:e7:ed:f0:
                    be:1d
                Exponent: 65537 (0x10001)
        X509v3 extensions:
            X509v3 Basic Constraints: 
                CA:FALSE
            Netscape Comment: 
                OpenSSL Generated Certificate
            X509v3 Subject Key Identifier: 
                88:EE:61:AE:01:9F:22:C3:75:D6:48:64:7D:92:54:86:CC:0F:63:D2
            X509v3 Authority Key Identifier: 
                keyid:DF:00:76:49:44:70:B4:EF:3E:2F:23:EA:52:61:74:77:E9:6D:95:75

    Signature Algorithm: sha256WithRSAEncryption
         26:60:cd:f1:ef:59:b2:60:1a:85:14:8a:ff:6a:52:b9:29:f4:
         db:f4:c2:d1:cd:d9:6c:e7:4a:32:1f:1e:b4:5f:35:f1:a3:b0:
         5d:9b:c5:56:67:db:89:08:45:bd:8f:ef:c6:ab:16:75:30:7c:
         16:59:ef:6d:52:03:c0:e5:64:3c:ec:2e:ec:69:7f:dd:58:c3:
         3e:08:1c:b1:4c:c8:c3:3a:54:56:54:d0:c2:e0:12:f6:1c:fd:
         2c:0c:b0:85:78:c1:b7:31:28:a7:17:63:1e:31:f9:df:c2:d7:
         79:2a:0c:59:82:70:d7:01:a1:ee:8b:45:c8:8b:45:0c:48:76:
         5d:45:b7:23:d3:d3:52:6d:ac:45:07:75:66:0c:a2:b8:99:2c:
         8c:1b:f4:6a:3e:3c:08:85:14:f2:8b:1a:c9:c4:63:3a:11:d2:
         3e:1d:e8:9b:10:3d:35:bb:01:f0:44:98:83:09:71:b6:be:c1:
         3a:b5:89:20:f4:14:e5:6f:4c:fe:eb:a3:26:39:d4:42:bc:d1:
         a2:c0:08:14:68:77:19:01:0d:3c:83:df:a3:81:ba:01:ae:98:
         66:87:96:22:56:ae:cb:4b:b1:3e:63:ec:d6:5a:5e:d3:f4:98:
         16:3c:97:f9:b7:16:26:c7:96:bd:be:a2:4d:74:89:af:50:e3:
         67:12:c5:b8
-----BEGIN CERTIFICATE-----
MIID1DCCArygAwIBAgIBAzANBgkqhkiG9w0BAQsFADCBgjELMAkGA1UEBhMCRVMx
DzANBgNVBAgMBk11cmNpYTEMMAoGA1UECgwDVU1VMQswCQYDVQQLDAJOTjEfMB0G
A1UEAwwWY2EubmVidWxhbmV4dXMxMzQ1LmNvbTEmMCQGCSqGSIb3DQEJARYXZWR1
QG5lYnVsYW5leHVzMTM0NS5jb20wHhcNMjQwNDI5MTU1ODQ5WhcNMjUwNjAzMTU1
ODQ5WjBbMQswCQYDVQQGEwJFUzEPMA0GA1UECAwGTXVyY2lhMQwwCgYDVQQKDANV
TVUxCzAJBgNVBAsMAk5OMSAwHgYDVQQDDBd3d3cubmVidWxhbmV4dXMxMzQ1LmNv
bTCCASIwDQYJKoZIhvcNAQEBBQADggEPADCCAQoCggEBAOwBHHZMlE1OfahIhLQm
by3ThyoSoPYk+IlhGdef6iMIn8pb2a12ApSGPO/dXUGl7zyMsIluBOUY+lZspdh4
YJUbMnYZqoZnNR+RjzyJb8roWdO7nDn/CPOtrFlXl/DVZK2N1i2/VP9gtiCNoQAj
NMD2YlrStDmNFR8bfuSOVSjMi6wmeRHz2kQzQzGsRp2H77YmmYJtYxUXIZ85bzGm
7O4YsJumsO4NDq3zXETCeDJ643EAovr+OXunW/617vKrIAeujMAzAs3Pl47/QU9R
NRt2/Zin1pZfEQGwVTW4S+dG7UlTFwwye/Q1Wc79w4CAgdQvqZdbeBEfT1145+3w
vh0CAwEAAaN7MHkwCQYDVR0TBAIwADAsBglghkgBhvhCAQ0EHxYdT3BlblNTTCBH
ZW5lcmF0ZWQgQ2VydGlmaWNhdGUwHQYDVR0OBBYEFIjuYa4BnyLDddZIZH2SVIbM
D2PSMB8GA1UdIwQYMBaAFN8AdklEcLTvPi8j6lJhdHfpbZV1MA0GCSqGSIb3DQEB
CwUAA4IBAQAmYM3x71myYBqFFIr/alK5KfTb9MLRzdls50oyHx60XzXxo7Bdm8VW
Z9uJCEW9j+/GqxZ1MHwWWe9tUgPA5WQ87C7saX/dWMM+CByxTMjDOlRWVNDC4BL2
HP0sDLCFeMG3MSinF2MeMfnfwtd5KgxZgnDXAaHui0XIi0UMSHZdRbcj09NSbaxF
B3VmDKK4mSyMG/RqPjwIhRTyixrJxGM6EdI+HeibED01uwHwRJiDCXG2vsE6tYkg
9BTlb0z+66MmOdRCvNGiwAgUaHcZAQ08g9+jgboBrphmh5YiVq7LS7E+Y+zWWl7T
9JgWPJf5txYmx5a9vqJNdImvUONnEsW4
-----END CERTIFICATE-----
