Certificate:
    Data:
        Version: 3 (0x2)
        Serial Number: 4 (0x4)
    Signature Algorithm: sha256WithRSAEncryption
        Issuer: C=ES, ST=Murcia, O=UMU, OU=NN, CN=ca.nebulanexus1345.com/emailAddress=edu@nebulanexus1345.com
        Validity
            Not Before: Apr 29 16:13:02 2024 GMT
            Not After : Jun  3 16:13:02 2025 GMT
        Subject: C=ES, ST=Murcia, O=UMU, OU=NN, CN=cliente.nebulanexus1345.com
        Subject Public Key Info:
            Public Key Algorithm: rsaEncryption
                Public-Key: (2048 bit)
                Modulus:
                    00:d5:b9:6c:ae:00:83:6c:0a:90:cc:32:3c:21:b5:
                    65:e5:8a:c5:06:b6:1d:81:8a:a0:2f:dd:ad:aa:4e:
                    af:e3:a3:9b:ac:c0:0a:ad:c6:a0:79:0a:85:80:4e:
                    5c:b6:76:c1:82:08:f4:32:c6:aa:ee:f3:5c:16:85:
                    f9:45:23:6f:67:65:76:33:15:76:8a:76:20:0d:27:
                    89:7d:04:62:e7:61:d9:56:2f:15:ec:44:d1:16:6f:
                    d3:95:74:2f:16:4b:43:05:fb:4d:91:04:af:9e:33:
                    a4:fc:80:d8:7c:3d:9d:46:bc:ec:3b:f4:a1:86:1c:
                    bb:8f:5f:f8:a1:db:5c:8c:8d:cb:99:d4:20:53:45:
                    ac:b9:af:6a:56:92:19:9c:1d:b3:8f:56:24:27:c2:
                    15:8e:d7:3d:97:78:aa:da:7a:a3:5c:b5:f2:b7:0e:
                    b5:4b:00:6c:a4:d2:17:f9:ee:25:70:22:c3:24:d1:
                    5a:41:73:90:f7:77:b8:df:ac:fe:3a:f5:9d:8e:f3:
                    6f:79:00:e2:d4:f8:43:17:4f:63:7c:cf:77:c5:25:
                    af:1b:4e:59:30:19:93:bb:30:70:90:35:1e:40:5a:
                    4b:27:1e:53:51:e0:10:e4:37:dc:95:d8:26:cb:79:
                    6c:41:48:61:90:36:00:57:b9:02:bd:1d:d6:3a:a3:
                    aa:b3
                Exponent: 65537 (0x10001)
        X509v3 extensions:
            X509v3 Basic Constraints: 
                CA:FALSE
            Netscape Comment: 
                OpenSSL Generated Certificate
            X509v3 Subject Key Identifier: 
                80:81:79:93:4F:BF:E8:EA:8D:C7:34:D5:79:0E:A1:63:F8:59:EA:C2
            X509v3 Authority Key Identifier: 
                keyid:DF:00:76:49:44:70:B4:EF:3E:2F:23:EA:52:61:74:77:E9:6D:95:75

    Signature Algorithm: sha256WithRSAEncryption
         85:43:00:47:d8:78:fa:40:dc:bc:64:e3:5c:d9:f2:ce:31:ad:
         29:1e:7f:0b:f1:27:25:a1:c3:5c:36:5e:08:2a:00:2a:86:65:
         03:22:36:e0:64:35:96:44:5f:ec:f6:6d:65:84:41:65:8b:75:
         c9:bb:f9:41:89:95:4a:2d:9b:40:cf:69:27:19:87:87:d4:4f:
         d9:f6:14:63:c9:63:50:d7:9a:aa:a6:d2:05:5f:b9:74:72:1f:
         0b:50:b8:8c:3d:5e:30:31:7b:db:5a:90:0a:6d:d5:df:bf:81:
         92:0a:9f:27:04:5b:d2:5a:cf:35:80:fc:11:85:b6:88:8a:9d:
         88:69:b1:60:34:d1:dd:cb:78:c0:c6:8b:0f:f0:f4:89:c4:39:
         2c:a0:b9:df:d9:78:ca:9d:77:6b:c8:af:09:3d:e8:b6:8f:07:
         6f:6c:08:59:f5:2c:da:4b:b5:fd:00:83:d3:a0:ba:36:5d:86:
         29:12:41:86:c3:6e:b9:bc:18:c6:6c:1b:fb:a6:44:bf:ac:dc:
         6f:fa:a6:64:10:56:82:fe:4c:00:05:9a:4d:a3:2f:1a:00:a1:
         66:50:75:35:ba:f3:6b:24:01:59:c4:60:40:2b:ea:92:e1:cc:
         0b:c2:f1:9d:d2:db:db:a5:3d:b8:91:1c:ec:2b:86:af:08:05:
         86:7a:cb:eb
-----BEGIN CERTIFICATE-----
MIID2DCCAsCgAwIBAgIBBDANBgkqhkiG9w0BAQsFADCBgjELMAkGA1UEBhMCRVMx
DzANBgNVBAgMBk11cmNpYTEMMAoGA1UECgwDVU1VMQswCQYDVQQLDAJOTjEfMB0G
A1UEAwwWY2EubmVidWxhbmV4dXMxMzQ1LmNvbTEmMCQGCSqGSIb3DQEJARYXZWR1
QG5lYnVsYW5leHVzMTM0NS5jb20wHhcNMjQwNDI5MTYxMzAyWhcNMjUwNjAzMTYx
MzAyWjBfMQswCQYDVQQGEwJFUzEPMA0GA1UECAwGTXVyY2lhMQwwCgYDVQQKDANV
TVUxCzAJBgNVBAsMAk5OMSQwIgYDVQQDDBtjbGllbnRlLm5lYnVsYW5leHVzMTM0
NS5jb20wggEiMA0GCSqGSIb3DQEBAQUAA4IBDwAwggEKAoIBAQDVuWyuAINsCpDM
MjwhtWXlisUGth2BiqAv3a2qTq/jo5uswAqtxqB5CoWATly2dsGCCPQyxqru81wW
hflFI29nZXYzFXaKdiANJ4l9BGLnYdlWLxXsRNEWb9OVdC8WS0MF+02RBK+eM6T8
gNh8PZ1GvOw79KGGHLuPX/ih21yMjcuZ1CBTRay5r2pWkhmcHbOPViQnwhWO1z2X
eKraeqNctfK3DrVLAGyk0hf57iVwIsMk0VpBc5D3d7jfrP469Z2O8295AOLU+EMX
T2N8z3fFJa8bTlkwGZO7MHCQNR5AWksnHlNR4BDkN9yV2CbLeWxBSGGQNgBXuQK9
HdY6o6qzAgMBAAGjezB5MAkGA1UdEwQCMAAwLAYJYIZIAYb4QgENBB8WHU9wZW5T
U0wgR2VuZXJhdGVkIENlcnRpZmljYXRlMB0GA1UdDgQWBBSAgXmTT7/o6o3HNNV5
DqFj+FnqwjAfBgNVHSMEGDAWgBTfAHZJRHC07z4vI+pSYXR36W2VdTANBgkqhkiG
9w0BAQsFAAOCAQEAhUMAR9h4+kDcvGTjXNnyzjGtKR5/C/EnJaHDXDZeCCoAKoZl
AyI24GQ1lkRf7PZtZYRBZYt1ybv5QYmVSi2bQM9pJxmHh9RP2fYUY8ljUNeaqqbS
BV+5dHIfC1C4jD1eMDF721qQCm3V37+BkgqfJwRb0lrPNYD8EYW2iIqdiGmxYDTR
3ct4wMaLD/D0icQ5LKC539l4yp13a8ivCT3oto8Hb2wIWfUs2ku1/QCD06C6Nl2G
KRJBhsNuubwYxmwb+6ZEv6zcb/qmZBBWgv5MAAWaTaMvGgChZlB1NbrzayQBWcRg
QCvqkuHMC8LxndLb26U9uJEc7CuGrwgFhnrL6w==
-----END CERTIFICATE-----
